target datalayout = "e-m:e-p270:32:32-p271:32:32-p272:64:64-i64:64-i128:128-f80:128-n8:16:32:64-S128"
target triple = "x86_64-pc-linux-gnu"

@ff_crop_tab = external hidden constant [2304 x i8], align 16

; Function Attrs: nounwind uwtable
define internal void @put_rv30_tpel8_h_lowpass(ptr noundef %0, ptr noundef %1, i32 noundef %2, i32 noundef %3, i32 noundef %4, i32 noundef %5) #3 {
  %7 = alloca ptr, align 8
  %8 = alloca ptr, align 8
  %9 = alloca i32, align 4
  %10 = alloca i32, align 4
  %11 = alloca i32, align 4
  %12 = alloca i32, align 4
  %13 = alloca i32, align 4
  %14 = alloca ptr, align 8
  %15 = alloca i32, align 4
  store ptr %0, ptr %7, align 8, !tbaa !10
  store ptr %1, ptr %8, align 8, !tbaa !10
  store i32 %2, ptr %9, align 4, !tbaa !14
  store i32 %3, ptr %10, align 4, !tbaa !14
  store i32 %4, ptr %11, align 4, !tbaa !14
  store i32 %5, ptr %12, align 4, !tbaa !14
  call void @llvm.lifetime.start.p0(i64 4, ptr %13) #4
  store i32 8, ptr %13, align 4, !tbaa !14
  call void @llvm.lifetime.start.p0(i64 8, ptr %14) #4
  store ptr getelementptr inbounds (i8, ptr @ff_crop_tab, i64 1024), ptr %14, align 8, !tbaa !10
  call void @llvm.lifetime.start.p0(i64 4, ptr %15) #4
  store i32 0, ptr %15, align 4, !tbaa !14
  br label %16

16:                                               ; preds = %284, %6
  %17 = load i32, ptr %15, align 4, !tbaa !14
  %18 = icmp slt i32 %17, 8
  br i1 %18, label %19, label %287

19:                                               ; preds = %16
  %20 = load ptr, ptr %14, align 8, !tbaa !10
  %21 = load ptr, ptr %8, align 8, !tbaa !10
  %22 = getelementptr inbounds i8, ptr %21, i64 -1
  %23 = load i8, ptr %22, align 1, !tbaa !16
  %24 = zext i8 %23 to i32
  %25 = load ptr, ptr %8, align 8, !tbaa !10
  %26 = getelementptr inbounds i8, ptr %25, i64 2
  %27 = load i8, ptr %26, align 1, !tbaa !16
  %28 = zext i8 %27 to i32
  %29 = add nsw i32 %24, %28
  %30 = sub nsw i32 0, %29
  %31 = load ptr, ptr %8, align 8, !tbaa !10
  %32 = getelementptr inbounds i8, ptr %31, i64 0
  %33 = load i8, ptr %32, align 1, !tbaa !16
  %34 = zext i8 %33 to i32
  %35 = load i32, ptr %11, align 4, !tbaa !14
  %36 = mul nsw i32 %34, %35
  %37 = add nsw i32 %30, %36
  %38 = load ptr, ptr %8, align 8, !tbaa !10
  %39 = getelementptr inbounds i8, ptr %38, i64 1
  %40 = load i8, ptr %39, align 1, !tbaa !16
  %41 = zext i8 %40 to i32
  %42 = load i32, ptr %12, align 4, !tbaa !14
  %43 = mul nsw i32 %41, %42
  %44 = add nsw i32 %37, %43
  %45 = add nsw i32 %44, 8
  %46 = ashr i32 %45, 4
  %47 = sext i32 %46 to i64
  %48 = getelementptr inbounds i8, ptr %20, i64 %47
  %49 = load i8, ptr %48, align 1, !tbaa !16
  %50 = load ptr, ptr %7, align 8, !tbaa !10
  %51 = getelementptr inbounds i8, ptr %50, i64 0
  store i8 %49, ptr %51, align 1, !tbaa !16
  %52 = load ptr, ptr %14, align 8, !tbaa !10
  %53 = load ptr, ptr %8, align 8, !tbaa !10
  %54 = getelementptr inbounds i8, ptr %53, i64 0
  %55 = load i8, ptr %54, align 1, !tbaa !16
  %56 = zext i8 %55 to i32
  %57 = load ptr, ptr %8, align 8, !tbaa !10
  %58 = getelementptr inbounds i8, ptr %57, i64 3
  %59 = load i8, ptr %58, align 1, !tbaa !16
  %60 = zext i8 %59 to i32
  %61 = add nsw i32 %56, %60
  %62 = sub nsw i32 0, %61
  %63 = load ptr, ptr %8, align 8, !tbaa !10
  %64 = getelementptr inbounds i8, ptr %63, i64 1
  %65 = load i8, ptr %64, align 1, !tbaa !16
  %66 = zext i8 %65 to i32
  %67 = load i32, ptr %11, align 4, !tbaa !14
  %68 = mul nsw i32 %66, %67
  %69 = add nsw i32 %62, %68
  %70 = load ptr, ptr %8, align 8, !tbaa !10
  %71 = getelementptr inbounds i8, ptr %70, i64 2
  %72 = load i8, ptr %71, align 1, !tbaa !16
  %73 = zext i8 %72 to i32
  %74 = load i32, ptr %12, align 4, !tbaa !14
  %75 = mul nsw i32 %73, %74
  %76 = add nsw i32 %69, %75
  %77 = add nsw i32 %76, 8
  %78 = ashr i32 %77, 4
  %79 = sext i32 %78 to i64
  %80 = getelementptr inbounds i8, ptr %52, i64 %79
  %81 = load i8, ptr %80, align 1, !tbaa !16
  %82 = load ptr, ptr %7, align 8, !tbaa !10
  %83 = getelementptr inbounds i8, ptr %82, i64 1
  store i8 %81, ptr %83, align 1, !tbaa !16
  %84 = load ptr, ptr %14, align 8, !tbaa !10
  %85 = load ptr, ptr %8, align 8, !tbaa !10
  %86 = getelementptr inbounds i8, ptr %85, i64 1
  %87 = load i8, ptr %86, align 1, !tbaa !16
  %88 = zext i8 %87 to i32
  %89 = load ptr, ptr %8, align 8, !tbaa !10
  %90 = getelementptr inbounds i8, ptr %89, i64 4
  %91 = load i8, ptr %90, align 1, !tbaa !16
  %92 = zext i8 %91 to i32
  %93 = add nsw i32 %88, %92
  %94 = sub nsw i32 0, %93
  %95 = load ptr, ptr %8, align 8, !tbaa !10
  %96 = getelementptr inbounds i8, ptr %95, i64 2
  %97 = load i8, ptr %96, align 1, !tbaa !16
  %98 = zext i8 %97 to i32
  %99 = load i32, ptr %11, align 4, !tbaa !14
  %100 = mul nsw i32 %98, %99
  %101 = add nsw i32 %94, %100
  %102 = load ptr, ptr %8, align 8, !tbaa !10
  %103 = getelementptr inbounds i8, ptr %102, i64 3
  %104 = load i8, ptr %103, align 1, !tbaa !16
  %105 = zext i8 %104 to i32
  %106 = load i32, ptr %12, align 4, !tbaa !14
  %107 = mul nsw i32 %105, %106
  %108 = add nsw i32 %101, %107
  %109 = add nsw i32 %108, 8
  %110 = ashr i32 %109, 4
  %111 = sext i32 %110 to i64
  %112 = getelementptr inbounds i8, ptr %84, i64 %111
  %113 = load i8, ptr %112, align 1, !tbaa !16
  %114 = load ptr, ptr %7, align 8, !tbaa !10
  %115 = getelementptr inbounds i8, ptr %114, i64 2
  store i8 %113, ptr %115, align 1, !tbaa !16
  %116 = load ptr, ptr %14, align 8, !tbaa !10
  %117 = load ptr, ptr %8, align 8, !tbaa !10
  %118 = getelementptr inbounds i8, ptr %117, i64 2
  %119 = load i8, ptr %118, align 1, !tbaa !16
  %120 = zext i8 %119 to i32
  %121 = load ptr, ptr %8, align 8, !tbaa !10
  %122 = getelementptr inbounds i8, ptr %121, i64 5
  %123 = load i8, ptr %122, align 1, !tbaa !16
  %124 = zext i8 %123 to i32
  %125 = add nsw i32 %120, %124
  %126 = sub nsw i32 0, %125
  %127 = load ptr, ptr %8, align 8, !tbaa !10
  %128 = getelementptr inbounds i8, ptr %127, i64 3
  %129 = load i8, ptr %128, align 1, !tbaa !16
  %130 = zext i8 %129 to i32
  %131 = load i32, ptr %11, align 4, !tbaa !14
  %132 = mul nsw i32 %130, %131
  %133 = add nsw i32 %126, %132
  %134 = load ptr, ptr %8, align 8, !tbaa !10
  %135 = getelementptr inbounds i8, ptr %134, i64 4
  %136 = load i8, ptr %135, align 1, !tbaa !16
  %137 = zext i8 %136 to i32
  %138 = load i32, ptr %12, align 4, !tbaa !14
  %139 = mul nsw i32 %137, %138
  %140 = add nsw i32 %133, %139
  %141 = add nsw i32 %140, 8
  %142 = ashr i32 %141, 4
  %143 = sext i32 %142 to i64
  %144 = getelementptr inbounds i8, ptr %116, i64 %143
  %145 = load i8, ptr %144, align 1, !tbaa !16
  %146 = load ptr, ptr %7, align 8, !tbaa !10
  %147 = getelementptr inbounds i8, ptr %146, i64 3
  store i8 %145, ptr %147, align 1, !tbaa !16
  %148 = load ptr, ptr %14, align 8, !tbaa !10
  %149 = load ptr, ptr %8, align 8, !tbaa !10
  %150 = getelementptr inbounds i8, ptr %149, i64 3
  %151 = load i8, ptr %150, align 1, !tbaa !16
  %152 = zext i8 %151 to i32
  %153 = load ptr, ptr %8, align 8, !tbaa !10
  %154 = getelementptr inbounds i8, ptr %153, i64 6
  %155 = load i8, ptr %154, align 1, !tbaa !16
  %156 = zext i8 %155 to i32
  %157 = add nsw i32 %152, %156
  %158 = sub nsw i32 0, %157
  %159 = load ptr, ptr %8, align 8, !tbaa !10
  %160 = getelementptr inbounds i8, ptr %159, i64 4
  %161 = load i8, ptr %160, align 1, !tbaa !16
  %162 = zext i8 %161 to i32
  %163 = load i32, ptr %11, align 4, !tbaa !14
  %164 = mul nsw i32 %162, %163
  %165 = add nsw i32 %158, %164
  %166 = load ptr, ptr %8, align 8, !tbaa !10
  %167 = getelementptr inbounds i8, ptr %166, i64 5
  %168 = load i8, ptr %167, align 1, !tbaa !16
  %169 = zext i8 %168 to i32
  %170 = load i32, ptr %12, align 4, !tbaa !14
  %171 = mul nsw i32 %169, %170
  %172 = add nsw i32 %165, %171
  %173 = add nsw i32 %172, 8
  %174 = ashr i32 %173, 4
  %175 = sext i32 %174 to i64
  %176 = getelementptr inbounds i8, ptr %148, i64 %175
  %177 = load i8, ptr %176, align 1, !tbaa !16
  %178 = load ptr, ptr %7, align 8, !tbaa !10
  %179 = getelementptr inbounds i8, ptr %178, i64 4
  store i8 %177, ptr %179, align 1, !tbaa !16
  %180 = load ptr, ptr %14, align 8, !tbaa !10
  %181 = load ptr, ptr %8, align 8, !tbaa !10
  %182 = getelementptr inbounds i8, ptr %181, i64 4
  %183 = load i8, ptr %182, align 1, !tbaa !16
  %184 = zext i8 %183 to i32
  %185 = load ptr, ptr %8, align 8, !tbaa !10
  %186 = getelementptr inbounds i8, ptr %185, i64 7
  %187 = load i8, ptr %186, align 1, !tbaa !16
  %188 = zext i8 %187 to i32
  %189 = add nsw i32 %184, %188
  %190 = sub nsw i32 0, %189
  %191 = load ptr, ptr %8, align 8, !tbaa !10
  %192 = getelementptr inbounds i8, ptr %191, i64 5
  %193 = load i8, ptr %192, align 1, !tbaa !16
  %194 = zext i8 %193 to i32
  %195 = load i32, ptr %11, align 4, !tbaa !14
  %196 = mul nsw i32 %194, %195
  %197 = add nsw i32 %190, %196
  %198 = load ptr, ptr %8, align 8, !tbaa !10
  %199 = getelementptr inbounds i8, ptr %198, i64 6
  %200 = load i8, ptr %199, align 1, !tbaa !16
  %201 = zext i8 %200 to i32
  %202 = load i32, ptr %12, align 4, !tbaa !14
  %203 = mul nsw i32 %201, %202
  %204 = add nsw i32 %197, %203
  %205 = add nsw i32 %204, 8
  %206 = ashr i32 %205, 4
  %207 = sext i32 %206 to i64
  %208 = getelementptr inbounds i8, ptr %180, i64 %207
  %209 = load i8, ptr %208, align 1, !tbaa !16
  %210 = load ptr, ptr %7, align 8, !tbaa !10
  %211 = getelementptr inbounds i8, ptr %210, i64 5
  store i8 %209, ptr %211, align 1, !tbaa !16
  %212 = load ptr, ptr %14, align 8, !tbaa !10
  %213 = load ptr, ptr %8, align 8, !tbaa !10
  %214 = getelementptr inbounds i8, ptr %213, i64 5
  %215 = load i8, ptr %214, align 1, !tbaa !16
  %216 = zext i8 %215 to i32
  %217 = load ptr, ptr %8, align 8, !tbaa !10
  %218 = getelementptr inbounds i8, ptr %217, i64 8
  %219 = load i8, ptr %218, align 1, !tbaa !16
  %220 = zext i8 %219 to i32
  %221 = add nsw i32 %216, %220
  %222 = sub nsw i32 0, %221
  %223 = load ptr, ptr %8, align 8, !tbaa !10
  %224 = getelementptr inbounds i8, ptr %223, i64 6
  %225 = load i8, ptr %224, align 1, !tbaa !16
  %226 = zext i8 %225 to i32
  %227 = load i32, ptr %11, align 4, !tbaa !14
  %228 = mul nsw i32 %226, %227
  %229 = add nsw i32 %222, %228
  %230 = load ptr, ptr %8, align 8, !tbaa !10
  %231 = getelementptr inbounds i8, ptr %230, i64 7
  %232 = load i8, ptr %231, align 1, !tbaa !16
  %233 = zext i8 %232 to i32
  %234 = load i32, ptr %12, align 4, !tbaa !14
  %235 = mul nsw i32 %233, %234
  %236 = add nsw i32 %229, %235
  %237 = add nsw i32 %236, 8
  %238 = ashr i32 %237, 4
  %239 = sext i32 %238 to i64
  %240 = getelementptr inbounds i8, ptr %212, i64 %239
  %241 = load i8, ptr %240, align 1, !tbaa !16
  %242 = load ptr, ptr %7, align 8, !tbaa !10
  %243 = getelementptr inbounds i8, ptr %242, i64 6
  store i8 %241, ptr %243, align 1, !tbaa !16
  %244 = load ptr, ptr %14, align 8, !tbaa !10
  %245 = load ptr, ptr %8, align 8, !tbaa !10
  %246 = getelementptr inbounds i8, ptr %245, i64 6
  %247 = load i8, ptr %246, align 1, !tbaa !16
  %248 = zext i8 %247 to i32
  %249 = load ptr, ptr %8, align 8, !tbaa !10
  %250 = getelementptr inbounds i8, ptr %249, i64 9
  %251 = load i8, ptr %250, align 1, !tbaa !16
  %252 = zext i8 %251 to i32
  %253 = add nsw i32 %248, %252
  %254 = sub nsw i32 0, %253
  %255 = load ptr, ptr %8, align 8, !tbaa !10
  %256 = getelementptr inbounds i8, ptr %255, i64 7
  %257 = load i8, ptr %256, align 1, !tbaa !16
  %258 = zext i8 %257 to i32
  %259 = load i32, ptr %11, align 4, !tbaa !14
  %260 = mul nsw i32 %258, %259
  %261 = add nsw i32 %254, %260
  %262 = load ptr, ptr %8, align 8, !tbaa !10
  %263 = getelementptr inbounds i8, ptr %262, i64 8
  %264 = load i8, ptr %263, align 1, !tbaa !16
  %265 = zext i8 %264 to i32
  %266 = load i32, ptr %12, align 4, !tbaa !14
  %267 = mul nsw i32 %265, %266
  %268 = add nsw i32 %261, %267
  %269 = add nsw i32 %268, 8
  %270 = ashr i32 %269, 4
  %271 = sext i32 %270 to i64
  %272 = getelementptr inbounds i8, ptr %244, i64 %271
  %273 = load i8, ptr %272, align 1, !tbaa !16
  %274 = load ptr, ptr %7, align 8, !tbaa !10
  %275 = getelementptr inbounds i8, ptr %274, i64 7
  store i8 %273, ptr %275, align 1, !tbaa !16
  %276 = load i32, ptr %9, align 4, !tbaa !14
  %277 = load ptr, ptr %7, align 8, !tbaa !10
  %278 = sext i32 %276 to i64
  %279 = getelementptr inbounds i8, ptr %277, i64 %278
  store ptr %279, ptr %7, align 8, !tbaa !10
  %280 = load i32, ptr %10, align 4, !tbaa !14
  %281 = load ptr, ptr %8, align 8, !tbaa !10
  %282 = sext i32 %280 to i64
  %283 = getelementptr inbounds i8, ptr %281, i64 %282
  store ptr %283, ptr %8, align 8, !tbaa !10
  br label %284

284:                                              ; preds = %19
  %285 = load i32, ptr %15, align 4, !tbaa !14
  %286 = add nsw i32 %285, 1
  store i32 %286, ptr %15, align 4, !tbaa !14
  br label %16, !llvm.loop !17

287:                                              ; preds = %16
  call void @llvm.lifetime.end.p0(i64 4, ptr %15) #4
  call void @llvm.lifetime.end.p0(i64 8, ptr %14) #4
  call void @llvm.lifetime.end.p0(i64 4, ptr %13) #4
  ret void
}