; Function Attrs: nofree norecurse nosync nounwind memory(argmem: readwrite) uwtable
define internal fastcc void @put_rv30_tpel8_h_lowpass(ptr noundef writeonly captures(none) %0, ptr noundef readonly captures(none) %1, i32 noundef %2, i32 noundef %3, i32 noundef range(i32 6, 13) %4, i32 noundef range(i32 6, 13) %5) unnamed_addr #3 {
  %7 = sext i32 %2 to i64
  %8 = sext i32 %3 to i64
  br label %9

9:                                                ; preds = %6, %9
  %.096 = phi i32 [ 0, %6 ], [ %165, %9 ]
  %.06995 = phi ptr [ %0, %6 ], [ %163, %9 ]
  %.07094 = phi ptr [ %1, %6 ], [ %164, %9 ]
  %10 = getelementptr inbounds i8, ptr %.07094, i64 -1
  %11 = load i8, ptr %10, align 1, !tbaa !8
  %12 = zext i8 %11 to i32
  %13 = getelementptr inbounds nuw i8, ptr %.07094, i64 2
  %14 = load i8, ptr %13, align 1, !tbaa !8
  %15 = zext i8 %14 to i32
  %16 = load i8, ptr %.07094, align 1, !tbaa !8
  %17 = zext i8 %16 to i32
  %18 = mul nuw nsw i32 %4, %17
  %19 = getelementptr inbounds nuw i8, ptr %.07094, i64 1
  %20 = load i8, ptr %19, align 1, !tbaa !8
  %21 = zext i8 %20 to i32
  %22 = mul nuw nsw i32 %5, %21
  %23 = add nuw nsw i32 %12, %15
  %reass.sub = sub nsw i32 %18, %23
  %24 = add nsw i32 %reass.sub, 8
  %25 = add nsw i32 %24, %22
  %26 = ashr i32 %25, 4
  %27 = sext i32 %26 to i64
  %28 = getelementptr inbounds i8, ptr getelementptr inbounds nuw (i8, ptr @ff_crop_tab, i64 1024), i64 %27
  %29 = load i8, ptr %28, align 1, !tbaa !8
  store i8 %29, ptr %.06995, align 1, !tbaa !8
  %30 = load i8, ptr %.07094, align 1, !tbaa !8
  %31 = zext i8 %30 to i32
  %32 = getelementptr inbounds nuw i8, ptr %.07094, i64 3
  %33 = load i8, ptr %32, align 1, !tbaa !8
  %34 = zext i8 %33 to i32
  %35 = load i8, ptr %19, align 1, !tbaa !8
  %36 = zext i8 %35 to i32
  %37 = mul nuw nsw i32 %4, %36
  %38 = load i8, ptr %13, align 1, !tbaa !8
  %39 = zext i8 %38 to i32
  %40 = mul nuw nsw i32 %5, %39
  %41 = add nuw nsw i32 %31, %34
  %reass.sub97 = sub nsw i32 %37, %41
  %42 = add nsw i32 %reass.sub97, 8
  %43 = add nsw i32 %42, %40
  %44 = ashr i32 %43, 4
  %45 = sext i32 %44 to i64
  %46 = getelementptr inbounds i8, ptr getelementptr inbounds nuw (i8, ptr @ff_crop_tab, i64 1024), i64 %45
  %47 = load i8, ptr %46, align 1, !tbaa !8
  %48 = getelementptr inbounds nuw i8, ptr %.06995, i64 1
  store i8 %47, ptr %48, align 1, !tbaa !8
  %49 = load i8, ptr %19, align 1, !tbaa !8
  %50 = zext i8 %49 to i32
  %51 = getelementptr inbounds nuw i8, ptr %.07094, i64 4
  %52 = load i8, ptr %51, align 1, !tbaa !8
  %53 = zext i8 %52 to i32
  %54 = load i8, ptr %13, align 1, !tbaa !8
  %55 = zext i8 %54 to i32
  %56 = mul nuw nsw i32 %4, %55
  %57 = load i8, ptr %32, align 1, !tbaa !8
  %58 = zext i8 %57 to i32
  %59 = mul nuw nsw i32 %5, %58
  %60 = add nuw nsw i32 %50, %53
  %reass.sub98 = sub nsw i32 %56, %60
  %61 = add nsw i32 %reass.sub98, 8
  %62 = add nsw i32 %61, %59
  %63 = ashr i32 %62, 4
  %64 = sext i32 %63 to i64
  %65 = getelementptr inbounds i8, ptr getelementptr inbounds nuw (i8, ptr @ff_crop_tab, i64 1024), i64 %64
  %66 = load i8, ptr %65, align 1, !tbaa !8
  %67 = getelementptr inbounds nuw i8, ptr %.06995, i64 2
  store i8 %66, ptr %67, align 1, !tbaa !8
  %68 = load i8, ptr %13, align 1, !tbaa !8
  %69 = zext i8 %68 to i32
  %70 = getelementptr inbounds nuw i8, ptr %.07094, i64 5
  %71 = load i8, ptr %70, align 1, !tbaa !8
  %72 = zext i8 %71 to i32
  %73 = load i8, ptr %32, align 1, !tbaa !8
  %74 = zext i8 %73 to i32
  %75 = mul nuw nsw i32 %4, %74
  %76 = load i8, ptr %51, align 1, !tbaa !8
  %77 = zext i8 %76 to i32
  %78 = mul nuw nsw i32 %5, %77
  %79 = add nuw nsw i32 %69, %72
  %reass.sub99 = sub nsw i32 %75, %79
  %80 = add nsw i32 %reass.sub99, 8
  %81 = add nsw i32 %80, %78
  %82 = ashr i32 %81, 4
  %83 = sext i32 %82 to i64
  %84 = getelementptr inbounds i8, ptr getelementptr inbounds nuw (i8, ptr @ff_crop_tab, i64 1024), i64 %83
  %85 = load i8, ptr %84, align 1, !tbaa !8
  %86 = getelementptr inbounds nuw i8, ptr %.06995, i64 3
  store i8 %85, ptr %86, align 1, !tbaa !8
  %87 = load i8, ptr %32, align 1, !tbaa !8
  %88 = zext i8 %87 to i32
  %89 = getelementptr inbounds nuw i8, ptr %.07094, i64 6
  %90 = load i8, ptr %89, align 1, !tbaa !8
  %91 = zext i8 %90 to i32
  %92 = load i8, ptr %51, align 1, !tbaa !8
  %93 = zext i8 %92 to i32
  %94 = mul nuw nsw i32 %4, %93
  %95 = load i8, ptr %70, align 1, !tbaa !8
  %96 = zext i8 %95 to i32
  %97 = mul nuw nsw i32 %5, %96
  %98 = add nuw nsw i32 %88, %91
  %reass.sub100 = sub nsw i32 %94, %98
  %99 = add nsw i32 %reass.sub100, 8
  %100 = add nsw i32 %99, %97
  %101 = ashr i32 %100, 4
  %102 = sext i32 %101 to i64
  %103 = getelementptr inbounds i8, ptr getelementptr inbounds nuw (i8, ptr @ff_crop_tab, i64 1024), i64 %102
  %104 = load i8, ptr %103, align 1, !tbaa !8
  %105 = getelementptr inbounds nuw i8, ptr %.06995, i64 4
  store i8 %104, ptr %105, align 1, !tbaa !8
  %106 = load i8, ptr %51, align 1, !tbaa !8
  %107 = zext i8 %106 to i32
  %108 = getelementptr inbounds nuw i8, ptr %.07094, i64 7
  %109 = load i8, ptr %108, align 1, !tbaa !8
  %110 = zext i8 %109 to i32
  %111 = load i8, ptr %70, align 1, !tbaa !8
  %112 = zext i8 %111 to i32
  %113 = mul nuw nsw i32 %4, %112
  %114 = load i8, ptr %89, align 1, !tbaa !8
  %115 = zext i8 %114 to i32
  %116 = mul nuw nsw i32 %5, %115
  %117 = add nuw nsw i32 %107, %110
  %reass.sub101 = sub nsw i32 %113, %117
  %118 = add nsw i32 %reass.sub101, 8
  %119 = add nsw i32 %118, %116
  %120 = ashr i32 %119, 4
  %121 = sext i32 %120 to i64
  %122 = getelementptr inbounds i8, ptr getelementptr inbounds nuw (i8, ptr @ff_crop_tab, i64 1024), i64 %121
  %123 = load i8, ptr %122, align 1, !tbaa !8
  %124 = getelementptr inbounds nuw i8, ptr %.06995, i64 5
  store i8 %123, ptr %124, align 1, !tbaa !8
  %125 = load i8, ptr %70, align 1, !tbaa !8
  %126 = zext i8 %125 to i32
  %127 = getelementptr inbounds nuw i8, ptr %.07094, i64 8
  %128 = load i8, ptr %127, align 1, !tbaa !8
  %129 = zext i8 %128 to i32
  %130 = load i8, ptr %89, align 1, !tbaa !8
  %131 = zext i8 %130 to i32
  %132 = mul nuw nsw i32 %4, %131
  %133 = load i8, ptr %108, align 1, !tbaa !8
  %134 = zext i8 %133 to i32
  %135 = mul nuw nsw i32 %5, %134
  %136 = add nuw nsw i32 %126, %129
  %reass.sub102 = sub nsw i32 %132, %136
  %137 = add nsw i32 %reass.sub102, 8
  %138 = add nsw i32 %137, %135
  %139 = ashr i32 %138, 4
  %140 = sext i32 %139 to i64
  %141 = getelementptr inbounds i8, ptr getelementptr inbounds nuw (i8, ptr @ff_crop_tab, i64 1024), i64 %140
  %142 = load i8, ptr %141, align 1, !tbaa !8
  %143 = getelementptr inbounds nuw i8, ptr %.06995, i64 6
  store i8 %142, ptr %143, align 1, !tbaa !8
  %144 = load i8, ptr %89, align 1, !tbaa !8
  %145 = zext i8 %144 to i32
  %146 = getelementptr inbounds nuw i8, ptr %.07094, i64 9
  %147 = load i8, ptr %146, align 1, !tbaa !8
  %148 = zext i8 %147 to i32
  %149 = load i8, ptr %108, align 1, !tbaa !8
  %150 = zext i8 %149 to i32
  %151 = mul nuw nsw i32 %4, %150
  %152 = load i8, ptr %127, align 1, !tbaa !8
  %153 = zext i8 %152 to i32
  %154 = mul nuw nsw i32 %5, %153
  %155 = add nuw nsw i32 %145, %148
  %reass.sub103 = sub nsw i32 %151, %155
  %156 = add nsw i32 %reass.sub103, 8
  %157 = add nsw i32 %156, %154
  %158 = ashr i32 %157, 4
  %159 = sext i32 %158 to i64
  %160 = getelementptr inbounds i8, ptr getelementptr inbounds nuw (i8, ptr @ff_crop_tab, i64 1024), i64 %159
  %161 = load i8, ptr %160, align 1, !tbaa !8
  %162 = getelementptr inbounds nuw i8, ptr %.06995, i64 7
  store i8 %161, ptr %162, align 1, !tbaa !8
  %163 = getelementptr inbounds i8, ptr %.06995, i64 %7
  %164 = getelementptr inbounds i8, ptr %.07094, i64 %8
  %165 = add nuw nsw i32 %.096, 1
  %exitcond.not = icmp eq i32 %165, 8
  br i1 %exitcond.not, label %166, label %9, !llvm.loop !26

166:                                              ; preds = %9
  ret void
}